target datalayout = "e-m:e-p270:32:32-p271:32:32-p272:64:64-i64:64-i128:128-f80:128-n8:16:32:64-S128"
target triple = "x86_64-pc-linux-gnu"

%struct.ARKodeMemRec = type { ptr, double, ptr, i32, i32, double, double, ptr, i32, double, ptr, i32, i32, ptr, ptr, i32, ptr, ptr, i32, ptr, ptr, ptr, ptr, ptr, ptr, ptr, ptr, ptr, ptr, ptr, ptr, ptr, ptr, ptr, i32, ptr, ptr, i32, ptr, i32, ptr, ptr, ptr, ptr, ptr, ptr, ptr, ptr, ptr, ptr, ptr, ptr, ptr, ptr, ptr, ptr, ptr, ptr, ptr, ptr, ptr, ptr, ptr, ptr, ptr, ptr, i32, ptr, ptr, ptr, ptr, ptr, ptr, ptr, i32, ptr, ptr, ptr, i32, ptr, ptr, ptr, ptr, ptr, ptr, ptr, i32, i32, i32, i32, double, double, double, double, double, double, double, double, double, double, i32, ptr, i64, i32, i32, i32, i32, i64, i64, i32, i64, i64, i64, i64, i64, i64, i64, double, double, double, double, double, i32, double, double, i32, i32, i32, i32, i32, i32, i32, i32, ptr, i32, ptr, ptr, ptr, ptr, i32, i32, i32 }
%struct.ARKodeMRIStepMemRec = type { ptr, ptr, i32, i32, i32, i32, i32, ptr, ptr, i32, i32, i32, ptr, i32, i32, i32, i32, i32, ptr, ptr, ptr, ptr, ptr, ptr, ptr, i32, ptr, i32, ptr, double, double, double, double, i32, double, double, double, double, double, double, i32, i64, i32, i32, i32, ptr, ptr, ptr, ptr, ptr, ptr, ptr, ptr, ptr, double, double, double, i64, i64, i64, i64, i64, i64, i32, i32, i32, double, double, ptr, i32, ptr, ptr }
%struct.ARKodeHAdaptMemRec = type { double, double, double, double, i32, double, double, double, double, double, double, i32, i32, i32, i32, ptr, i32, ptr, ptr, i64, i64 }
%struct._MRIStepInnerStepper = type { ptr, ptr, ptr, ptr, i32, i32, i32, double, double, ptr, ptr, i64, i64, i64, i64 }
%struct._MRIStepInnerStepper_Ops = type { ptr, ptr, ptr, ptr, ptr, ptr }

@.str = private unnamed_addr constant [123 x i8] c"generated/home/dtcxzyw/WorkSpace/Projects/compilers/llvm-opt-benchmark/bench/sundials/sundials/src/arkode/arkode_mristep.c\00", align 1
@__func__.mriStep_StageERKFast = private unnamed_addr constant [21 x i8] c"mriStep_StageERKFast\00", align 1
@.str.92 = private unnamed_addr constant [40 x i8] c"Failure when evolving the inner stepper\00", align 1
@.str.93 = private unnamed_addr constant [55 x i8] c"Unable to get accumulated error from the inner stepper\00", align 1

; Function Attrs: nounwind uwtable
define i32 @mriStepInnerStepper_GetAccumulatedError(ptr noundef %0, ptr noundef %1) #0 {
  %3 = alloca i32, align 4
  %4 = alloca ptr, align 8
  %5 = alloca ptr, align 8
  store ptr %0, ptr %4, align 8, !tbaa !11
  store ptr %1, ptr %5, align 8, !tbaa !125
  %6 = load ptr, ptr %4, align 8, !tbaa !11
  %7 = icmp eq ptr %6, null
  br i1 %7, label %8, label %9

8:                                                ; preds = %2
  store i32 -22, ptr %3, align 4
  br label %37

9:                                                ; preds = %2
  %10 = load ptr, ptr %4, align 8, !tbaa !11
  %11 = getelementptr inbounds nuw %struct._MRIStepInnerStepper, ptr %10, i32 0, i32 1
  %12 = load ptr, ptr %11, align 8, !tbaa !173
  %13 = icmp eq ptr %12, null
  br i1 %13, label %14, label %15

14:                                               ; preds = %9
  store i32 -22, ptr %3, align 4
  br label %37

15:                                               ; preds = %9
  %16 = load ptr, ptr %4, align 8, !tbaa !11
  %17 = getelementptr inbounds nuw %struct._MRIStepInnerStepper, ptr %16, i32 0, i32 1
  %18 = load ptr, ptr %17, align 8, !tbaa !173
  %19 = getelementptr inbounds nuw %struct._MRIStepInnerStepper_Ops, ptr %18, i32 0, i32 3
  %20 = load ptr, ptr %19, align 8, !tbaa !244
  %21 = icmp ne ptr %20, null
  br i1 %21, label %22, label %36

22:                                               ; preds = %15
  %23 = load ptr, ptr %4, align 8, !tbaa !11
  %24 = getelementptr inbounds nuw %struct._MRIStepInnerStepper, ptr %23, i32 0, i32 1
  %25 = load ptr, ptr %24, align 8, !tbaa !173
  %26 = getelementptr inbounds nuw %struct._MRIStepInnerStepper_Ops, ptr %25, i32 0, i32 3
  %27 = load ptr, ptr %26, align 8, !tbaa !244
  %28 = load ptr, ptr %4, align 8, !tbaa !11
  %29 = load ptr, ptr %5, align 8, !tbaa !125
  %30 = call i32 %27(ptr noundef %28, ptr noundef %29)
  %31 = load ptr, ptr %4, align 8, !tbaa !11
  %32 = getelementptr inbounds nuw %struct._MRIStepInnerStepper, ptr %31, i32 0, i32 6
  store i32 %30, ptr %32, align 8, !tbaa !229
  %33 = load ptr, ptr %4, align 8, !tbaa !11
  %34 = getelementptr inbounds nuw %struct._MRIStepInnerStepper, ptr %33, i32 0, i32 6
  %35 = load i32, ptr %34, align 8, !tbaa !229
  store i32 %35, ptr %3, align 4
  br label %37

36:                                               ; preds = %15
  store i32 -34, ptr %3, align 4
  br label %37

37:                                               ; preds = %36, %22, %14, %8
  %38 = load i32, ptr %3, align 4
  ret i32 %38
}

; Function Attrs: nounwind uwtable
define i32 @mriStepInnerStepper_Evolve(ptr noundef %0, double noundef %1, double noundef %2, ptr noundef %3) #0 {
  %5 = alloca i32, align 4
  %6 = alloca ptr, align 8
  %7 = alloca double, align 8
  %8 = alloca double, align 8
  %9 = alloca ptr, align 8
  store ptr %0, ptr %6, align 8, !tbaa !11
  store double %1, ptr %7, align 8, !tbaa !7
  store double %2, ptr %8, align 8, !tbaa !7
  store ptr %3, ptr %9, align 8, !tbaa !9
  %10 = load ptr, ptr %6, align 8, !tbaa !11
  %11 = icmp eq ptr %10, null
  br i1 %11, label %12, label %13

12:                                               ; preds = %4
  store i32 -22, ptr %5, align 4
  br label %43

13:                                               ; preds = %4
  %14 = load ptr, ptr %6, align 8, !tbaa !11
  %15 = getelementptr inbounds nuw %struct._MRIStepInnerStepper, ptr %14, i32 0, i32 1
  %16 = load ptr, ptr %15, align 8, !tbaa !173
  %17 = icmp eq ptr %16, null
  br i1 %17, label %18, label %19

18:                                               ; preds = %13
  store i32 -22, ptr %5, align 4
  br label %43

19:                                               ; preds = %13
  %20 = load ptr, ptr %6, align 8, !tbaa !11
  %21 = getelementptr inbounds nuw %struct._MRIStepInnerStepper, ptr %20, i32 0, i32 1
  %22 = load ptr, ptr %21, align 8, !tbaa !173
  %23 = getelementptr inbounds nuw %struct._MRIStepInnerStepper_Ops, ptr %22, i32 0, i32 0
  %24 = load ptr, ptr %23, align 8, !tbaa !219
  %25 = icmp eq ptr %24, null
  br i1 %25, label %26, label %27

26:                                               ; preds = %19
  store i32 -22, ptr %5, align 4
  br label %43

27:                                               ; preds = %19
  %28 = load ptr, ptr %6, align 8, !tbaa !11
  %29 = getelementptr inbounds nuw %struct._MRIStepInnerStepper, ptr %28, i32 0, i32 1
  %30 = load ptr, ptr %29, align 8, !tbaa !173
  %31 = getelementptr inbounds nuw %struct._MRIStepInnerStepper_Ops, ptr %30, i32 0, i32 0
  %32 = load ptr, ptr %31, align 8, !tbaa !219
  %33 = load ptr, ptr %6, align 8, !tbaa !11
  %34 = load double, ptr %7, align 8, !tbaa !7
  %35 = load double, ptr %8, align 8, !tbaa !7
  %36 = load ptr, ptr %9, align 8, !tbaa !9
  %37 = call i32 %32(ptr noundef %33, double noundef %34, double noundef %35, ptr noundef %36)
  %38 = load ptr, ptr %6, align 8, !tbaa !11
  %39 = getelementptr inbounds nuw %struct._MRIStepInnerStepper, ptr %38, i32 0, i32 6
  store i32 %37, ptr %39, align 8, !tbaa !229
  %40 = load ptr, ptr %6, align 8, !tbaa !11
  %41 = getelementptr inbounds nuw %struct._MRIStepInnerStepper, ptr %40, i32 0, i32 6
  %42 = load i32, ptr %41, align 8, !tbaa !229
  store i32 %42, ptr %5, align 4
  br label %43

43:                                               ; preds = %27, %26, %18, %12
  %44 = load i32, ptr %5, align 4
  ret i32 %44
}

; Function Attrs: nounwind uwtable
define i32 @mriStep_StageERKFast(ptr noundef %0, ptr noundef %1, double noundef %2, double noundef %3, ptr noundef %4, ptr noundef %5, i32 noundef %6) #0 {
  %8 = alloca i32, align 4
  %9 = alloca ptr, align 8
  %10 = alloca ptr, align 8
  %11 = alloca double, align 8
  %12 = alloca double, align 8
  %13 = alloca ptr, align 8
  %14 = alloca ptr, align 8
  %15 = alloca i32, align 4
  %16 = alloca i32, align 4
  %17 = alloca i32, align 4
  %18 = alloca i32, align 4
  store ptr %0, ptr %9, align 8, !tbaa !17
  store ptr %1, ptr %10, align 8, !tbaa !19
  store double %2, ptr %11, align 8, !tbaa !7
  store double %3, ptr %12, align 8, !tbaa !7
  store ptr %4, ptr %13, align 8, !tbaa !9
  store ptr %5, ptr %14, align 8, !tbaa !9
  store i32 %6, ptr %15, align 4, !tbaa !15
  call void @llvm.lifetime.start.p0(i64 4, ptr %16) #8
  call void @llvm.lifetime.start.p0(i64 4, ptr %17) #8
  %19 = load ptr, ptr %10, align 8, !tbaa !19
  %20 = getelementptr inbounds nuw %struct.ARKodeMRIStepMemRec, ptr %19, i32 0, i32 52
  %21 = load ptr, ptr %20, align 8, !tbaa !108
  %22 = icmp ne ptr %21, null
  br i1 %22, label %23, label %46

23:                                               ; preds = %7
  %24 = load ptr, ptr %10, align 8, !tbaa !19
  %25 = getelementptr inbounds nuw %struct.ARKodeMRIStepMemRec, ptr %24, i32 0, i32 52
  %26 = load ptr, ptr %25, align 8, !tbaa !108
  %27 = load double, ptr %11, align 8, !tbaa !7
  %28 = load ptr, ptr %10, align 8, !tbaa !19
  %29 = getelementptr inbounds nuw %struct.ARKodeMRIStepMemRec, ptr %28, i32 0, i32 51
  %30 = load ptr, ptr %29, align 8, !tbaa !114
  %31 = getelementptr inbounds nuw %struct._MRIStepInnerStepper, ptr %30, i32 0, i32 3
  %32 = load ptr, ptr %31, align 8, !tbaa !249
  %33 = load ptr, ptr %10, align 8, !tbaa !19
  %34 = getelementptr inbounds nuw %struct.ARKodeMRIStepMemRec, ptr %33, i32 0, i32 51
  %35 = load ptr, ptr %34, align 8, !tbaa !114
  %36 = getelementptr inbounds nuw %struct._MRIStepInnerStepper, ptr %35, i32 0, i32 4
  %37 = load i32, ptr %36, align 8, !tbaa !230
  %38 = load ptr, ptr %9, align 8, !tbaa !17
  %39 = getelementptr inbounds nuw %struct.ARKodeMemRec, ptr %38, i32 0, i32 2
  %40 = load ptr, ptr %39, align 8, !tbaa !179
  %41 = call i32 %26(double noundef %27, ptr noundef %32, i32 noundef %37, ptr noundef %40)
  store i32 %41, ptr %16, align 4, !tbaa !15
  %42 = load i32, ptr %16, align 4, !tbaa !15
  %43 = icmp ne i32 %42, 0
  br i1 %43, label %44, label %45

44:                                               ; preds = %23
  store i32 -35, ptr %8, align 4
  store i32 1, ptr %18, align 4
  br label %121

45:                                               ; preds = %23
  br label %46

46:                                               ; preds = %45, %7
  %47 = load i32, ptr %15, align 4, !tbaa !15
  %48 = icmp ne i32 %47, 0
  br i1 %48, label %49, label %56

49:                                               ; preds = %46
  %50 = load ptr, ptr %9, align 8, !tbaa !17
  %51 = getelementptr inbounds nuw %struct.ARKodeMemRec, ptr %50, i32 0, i32 101
  %52 = load ptr, ptr %51, align 8, !tbaa !144
  %53 = getelementptr inbounds nuw %struct.ARKodeHAdaptMemRec, ptr %52, i32 0, i32 15
  %54 = load ptr, ptr %53, align 8, !tbaa !168
  %55 = call i32 @SUNAdaptController_GetType(ptr noundef %54)
  br label %57

56:                                               ; preds = %46
  br label %57

57:                                               ; preds = %56, %49
  %58 = phi i32 [ %55, %49 ], [ 0, %56 ]
  store i32 %58, ptr %17, align 4, !tbaa !15
  %59 = load ptr, ptr %10, align 8, !tbaa !19
  %60 = getelementptr inbounds nuw %struct.ARKodeMRIStepMemRec, ptr %59, i32 0, i32 51
  %61 = load ptr, ptr %60, align 8, !tbaa !114
  %62 = load double, ptr %11, align 8, !tbaa !7
  %63 = load double, ptr %12, align 8, !tbaa !7
  %64 = load ptr, ptr %13, align 8, !tbaa !9
  %65 = call i32 @mriStepInnerStepper_Evolve(ptr noundef %61, double noundef %62, double noundef %63, ptr noundef %64)
  store i32 %65, ptr %16, align 4, !tbaa !15
  %66 = load i32, ptr %16, align 4, !tbaa !15
  %67 = icmp slt i32 %66, 0
  br i1 %67, label %68, label %70

68:                                               ; preds = %57
  %69 = load ptr, ptr %9, align 8, !tbaa !17
  call void (ptr, i32, i32, ptr, ptr, ptr, ...) @arkProcessError(ptr noundef %69, i32 noundef -34, i32 noundef 3545, ptr noundef @__func__.mriStep_StageERKFast, ptr noundef @.str, ptr noundef @.str.92)
  store i32 -34, ptr %8, align 4
  store i32 1, ptr %18, align 4
  br label %121

70:                                               ; preds = %57
  %71 = load i32, ptr %16, align 4, !tbaa !15
  %72 = icmp sgt i32 %71, 0
  br i1 %72, label %73, label %82

73:                                               ; preds = %70
  %74 = load ptr, ptr %10, align 8, !tbaa !19
  %75 = getelementptr inbounds nuw %struct.ARKodeMRIStepMemRec, ptr %74, i32 0, i32 62
  %76 = load i64, ptr %75, align 8, !tbaa !101
  %77 = add nsw i64 %76, 1
  store i64 %77, ptr %75, align 8, !tbaa !101
  %78 = load ptr, ptr %9, align 8, !tbaa !17
  %79 = getelementptr inbounds nuw %struct.ARKodeMemRec, ptr %78, i32 0, i32 110
  %80 = load i64, ptr %79, align 8, !tbaa !250
  %81 = add nsw i64 %80, -1
  store i64 %81, ptr %79, align 8, !tbaa !250
  store i32 5, ptr %8, align 4
  store i32 1, ptr %18, align 4
  br label %121

82:                                               ; preds = %70
  %83 = load i32, ptr %15, align 4, !tbaa !15
  %84 = icmp ne i32 %83, 0
  br i1 %84, label %85, label %101

85:                                               ; preds = %82
  %86 = load i32, ptr %17, align 4, !tbaa !15
  %87 = icmp eq i32 %86, 2
  br i1 %87, label %88, label %100

88:                                               ; preds = %85
  %89 = load ptr, ptr %10, align 8, !tbaa !19
  %90 = getelementptr inbounds nuw %struct.ARKodeMRIStepMemRec, ptr %89, i32 0, i32 51
  %91 = load ptr, ptr %90, align 8, !tbaa !114
  %92 = load ptr, ptr %10, align 8, !tbaa !19
  %93 = getelementptr inbounds nuw %struct.ARKodeMRIStepMemRec, ptr %92, i32 0, i32 55
  %94 = call i32 @mriStepInnerStepper_GetAccumulatedError(ptr noundef %91, ptr noundef %93)
  store i32 %94, ptr %16, align 4, !tbaa !15
  %95 = load i32, ptr %16, align 4, !tbaa !15
  %96 = icmp ne i32 %95, 0
  br i1 %96, label %97, label %99

97:                                               ; preds = %88
  %98 = load ptr, ptr %9, align 8, !tbaa !17
  call void (ptr, i32, i32, ptr, ptr, ptr, ...) @arkProcessError(ptr noundef %98, i32 noundef -34, i32 noundef 3571, ptr noundef @__func__.mriStep_StageERKFast, ptr noundef @.str, ptr noundef @.str.93)
  store i32 -34, ptr %8, align 4
  store i32 1, ptr %18, align 4
  br label %121

99:                                               ; preds = %88
  br label %100

100:                                              ; preds = %99, %85
  br label %101

101:                                              ; preds = %100, %82
  %102 = load ptr, ptr %10, align 8, !tbaa !19
  %103 = getelementptr inbounds nuw %struct.ARKodeMRIStepMemRec, ptr %102, i32 0, i32 53
  %104 = load ptr, ptr %103, align 8, !tbaa !109
  %105 = icmp ne ptr %104, null
  br i1 %105, label %106, label %120

106:                                              ; preds = %101
  %107 = load ptr, ptr %10, align 8, !tbaa !19
  %108 = getelementptr inbounds nuw %struct.ARKodeMRIStepMemRec, ptr %107, i32 0, i32 53
  %109 = load ptr, ptr %108, align 8, !tbaa !109
  %110 = load double, ptr %12, align 8, !tbaa !7
  %111 = load ptr, ptr %13, align 8, !tbaa !9
  %112 = load ptr, ptr %9, align 8, !tbaa !17
  %113 = getelementptr inbounds nuw %struct.ARKodeMemRec, ptr %112, i32 0, i32 2
  %114 = load ptr, ptr %113, align 8, !tbaa !179
  %115 = call i32 %109(double noundef %110, ptr noundef %111, ptr noundef %114)
  store i32 %115, ptr %16, align 4, !tbaa !15
  %116 = load i32, ptr %16, align 4, !tbaa !15
  %117 = icmp ne i32 %116, 0
  br i1 %117, label %118, label %119

118:                                              ; preds = %106
  store i32 -36, ptr %8, align 4
  store i32 1, ptr %18, align 4
  br label %121

119:                                              ; preds = %106
  br label %120

120:                                              ; preds = %119, %101
  store i32 0, ptr %8, align 4
  store i32 1, ptr %18, align 4
  br label %121

121:                                              ; preds = %120, %118, %97, %73, %68, %44
  call void @llvm.lifetime.end.p0(i64 4, ptr %17) #8
  call void @llvm.lifetime.end.p0(i64 4, ptr %16) #8
  %122 = load i32, ptr %8, align 4
  ret i32 %122
}