; Function Attrs: nounwind uwtable
define range(i32 -36, 6) i32 @mriStep_StageERKFast(ptr noundef %0, ptr noundef %1, double noundef %2, double noundef %3, ptr noundef %4, ptr readnone captures(none) %5, i32 noundef %6) local_unnamed_addr #0 {
  %8 = getelementptr inbounds nuw i8, ptr %1, i64 368
  %9 = load ptr, ptr %8, align 8, !tbaa !234
  %.not = icmp eq ptr %9, null
  br i1 %.not, label %20, label %10

10:                                               ; preds = %7
  %11 = getelementptr inbounds nuw i8, ptr %1, i64 360
  %12 = load ptr, ptr %11, align 8, !tbaa !102
  %13 = getelementptr inbounds nuw i8, ptr %12, i64 24
  %14 = load ptr, ptr %13, align 8, !tbaa !233
  %15 = getelementptr inbounds nuw i8, ptr %12, i64 32
  %16 = load i32, ptr %15, align 8, !tbaa !213
  %17 = getelementptr inbounds nuw i8, ptr %0, i64 16
  %18 = load ptr, ptr %17, align 8, !tbaa !169
  %19 = tail call i32 %9(double noundef %2, ptr noundef %14, i32 noundef %16, ptr noundef %18) #14
  %.not34 = icmp eq i32 %19, 0
  br i1 %.not34, label %20, label %72

20:                                               ; preds = %10, %7
  %.not36 = icmp eq i32 %6, 0
  br i1 %.not36, label %28, label %21

21:                                               ; preds = %20
  %22 = getelementptr inbounds nuw i8, ptr %0, i64 776
  %23 = load ptr, ptr %22, align 8, !tbaa !133
  %24 = getelementptr inbounds nuw i8, ptr %23, i64 104
  %25 = load ptr, ptr %24, align 8, !tbaa !157
  %26 = tail call i32 @SUNAdaptController_GetType(ptr noundef %25) #14
  %27 = icmp eq i32 %26, 2
  br label %28

28:                                               ; preds = %20, %21
  %or.cond = phi i1 [ %27, %21 ], [ false, %20 ]
  %29 = getelementptr inbounds nuw i8, ptr %1, i64 360
  %30 = load ptr, ptr %29, align 8, !tbaa !102
  %31 = icmp eq ptr %30, null
  br i1 %31, label %mriStepInnerStepper_Evolve.exit.thread, label %32

32:                                               ; preds = %28
  %33 = getelementptr inbounds nuw i8, ptr %30, i64 8
  %34 = load ptr, ptr %33, align 8, !tbaa !103
  %35 = icmp eq ptr %34, null
  br i1 %35, label %mriStepInnerStepper_Evolve.exit.thread, label %36

36:                                               ; preds = %32
  %37 = load ptr, ptr %34, align 8, !tbaa !106
  %38 = icmp eq ptr %37, null
  br i1 %38, label %mriStepInnerStepper_Evolve.exit.thread, label %mriStepInnerStepper_Evolve.exit

mriStepInnerStepper_Evolve.exit:                  ; preds = %36
  %39 = tail call i32 %37(ptr noundef nonnull %30, double noundef %2, double noundef %3, ptr noundef %4) #14
  %40 = getelementptr inbounds nuw i8, ptr %30, i64 40
  store i32 %39, ptr %40, align 8, !tbaa !166
  %41 = icmp slt i32 %39, 0
  br i1 %41, label %mriStepInnerStepper_Evolve.exit.thread, label %42

mriStepInnerStepper_Evolve.exit.thread:           ; preds = %36, %32, %28, %mriStepInnerStepper_Evolve.exit
  tail call void (ptr, i32, i32, ptr, ptr, ptr, ...) @arkProcessError(ptr noundef %0, i32 noundef -34, i32 noundef 3545, ptr noundef nonnull @__func__.mriStep_StageERKFast, ptr noundef nonnull @.str, ptr noundef nonnull @.str.92) #14
  br label %72

42:                                               ; preds = %mriStepInnerStepper_Evolve.exit
  %.not35 = icmp eq i32 %39, 0
  br i1 %.not35, label %50, label %43

43:                                               ; preds = %42
  %44 = getelementptr inbounds nuw i8, ptr %1, i64 448
  %45 = load i64, ptr %44, align 8, !tbaa !203
  %46 = add nsw i64 %45, 1
  store i64 %46, ptr %44, align 8, !tbaa !203
  %47 = getelementptr inbounds nuw i8, ptr %0, i64 832
  %48 = load i64, ptr %47, align 8, !tbaa !235
  %49 = add nsw i64 %48, -1
  store i64 %49, ptr %47, align 8, !tbaa !235
  br label %72

50:                                               ; preds = %42
  br i1 %or.cond, label %51, label %64

51:                                               ; preds = %50
  %52 = load ptr, ptr %29, align 8, !tbaa !102
  %53 = getelementptr inbounds nuw i8, ptr %1, i64 392
  %54 = icmp eq ptr %52, null
  br i1 %54, label %mriStepInnerStepper_GetAccumulatedError.exit.thread, label %55

55:                                               ; preds = %51
  %56 = getelementptr inbounds nuw i8, ptr %52, i64 8
  %57 = load ptr, ptr %56, align 8, !tbaa !103
  %58 = icmp eq ptr %57, null
  br i1 %58, label %mriStepInnerStepper_GetAccumulatedError.exit.thread, label %59

59:                                               ; preds = %55
  %60 = getelementptr inbounds nuw i8, ptr %57, i64 24
  %61 = load ptr, ptr %60, align 8, !tbaa !162
  %.not.i = icmp eq ptr %61, null
  br i1 %.not.i, label %mriStepInnerStepper_GetAccumulatedError.exit.thread, label %mriStepInnerStepper_GetAccumulatedError.exit

mriStepInnerStepper_GetAccumulatedError.exit:     ; preds = %59
  %62 = tail call i32 %61(ptr noundef nonnull %52, ptr noundef nonnull %53) #14
  %63 = getelementptr inbounds nuw i8, ptr %52, i64 40
  store i32 %62, ptr %63, align 8, !tbaa !166
  %.not37 = icmp eq i32 %62, 0
  br i1 %.not37, label %64, label %mriStepInnerStepper_GetAccumulatedError.exit.thread

mriStepInnerStepper_GetAccumulatedError.exit.thread: ; preds = %59, %55, %51, %mriStepInnerStepper_GetAccumulatedError.exit
  tail call void (ptr, i32, i32, ptr, ptr, ptr, ...) @arkProcessError(ptr noundef %0, i32 noundef -34, i32 noundef 3571, ptr noundef nonnull @__func__.mriStep_StageERKFast, ptr noundef nonnull @.str, ptr noundef nonnull @.str.93) #14
  br label %72

64:                                               ; preds = %mriStepInnerStepper_GetAccumulatedError.exit, %50
  %65 = getelementptr inbounds nuw i8, ptr %1, i64 376
  %66 = load ptr, ptr %65, align 8, !tbaa !236
  %.not38 = icmp eq ptr %66, null
  br i1 %.not38, label %71, label %67

67:                                               ; preds = %64
  %68 = getelementptr inbounds nuw i8, ptr %0, i64 16
  %69 = load ptr, ptr %68, align 8, !tbaa !169
  %70 = tail call i32 %66(double noundef %3, ptr noundef %4, ptr noundef %69) #14
  %.not39 = icmp eq i32 %70, 0
  br i1 %.not39, label %71, label %72

71:                                               ; preds = %67, %64
  br label %72

72:                                               ; preds = %67, %10, %71, %mriStepInnerStepper_GetAccumulatedError.exit.thread, %43, %mriStepInnerStepper_Evolve.exit.thread
  %.0 = phi i32 [ -34, %mriStepInnerStepper_Evolve.exit.thread ], [ 5, %43 ], [ -34, %mriStepInnerStepper_GetAccumulatedError.exit.thread ], [ 0, %71 ], [ -35, %10 ], [ -36, %67 ]
  ret i32 %.0
}